target datalayout = "e-m:e-p270:32:32-p271:32:32-p272:64:64-i64:64-i128:128-f80:128-n8:16:32:64-S128"
target triple = "x86_64-pc-linux-gnu"

%struct._proto_node = type { ptr, ptr, ptr, ptr, ptr, ptr, ptr }
%struct.field_info = type { ptr, i32, i32, i32, i32, i32, i32, ptr, ptr, ptr, i32, i32 }

@.str.22 = private unnamed_addr constant [3 x i8] c"%u\00", align 1
@.str.23 = private unnamed_addr constant [6 x i8] c" (%s)\00", align 1
@.str.24 = private unnamed_addr constant [5 x i8] c"0x%x\00", align 1

; Function Attrs: inlinehint nounwind null_pointer_is_valid sspstrong uwtable
define internal void @proto_item_set_hidden(ptr noundef %0) #5 {
  %2 = alloca ptr, align 8
  store ptr %0, ptr %2, align 8
  %3 = load ptr, ptr %2, align 8
  %4 = icmp ne ptr %3, null
  br i1 %4, label %5, label %24

5:                                                ; preds = %1
  br label %6

6:                                                ; preds = %5
  %7 = load ptr, ptr %2, align 8
  %8 = getelementptr inbounds nuw %struct._proto_node, ptr %7, i32 0, i32 5
  %9 = load ptr, ptr %8, align 8
  %10 = icmp ne ptr %9, null
  br i1 %10, label %11, label %22

11:                                               ; preds = %6
  %12 = load ptr, ptr %2, align 8
  %13 = getelementptr inbounds nuw %struct._proto_node, ptr %12, i32 0, i32 5
  %14 = load ptr, ptr %13, align 8
  %15 = getelementptr inbounds nuw %struct.field_info, ptr %14, i32 0, i32 6
  %16 = load i32, ptr %15, align 4
  %17 = or i32 %16, 1
  %18 = load ptr, ptr %2, align 8
  %19 = getelementptr inbounds nuw %struct._proto_node, ptr %18, i32 0, i32 5
  %20 = load ptr, ptr %19, align 8
  %21 = getelementptr inbounds nuw %struct.field_info, ptr %20, i32 0, i32 6
  store i32 %17, ptr %21, align 4
  br label %22

22:                                               ; preds = %11, %6
  br label %23

23:                                               ; preds = %22
  br label %24

24:                                               ; preds = %23, %1
  ret void
}

; Function Attrs: null_pointer_is_valid sspstrong uwtable
define hidden void @dissect_mtp3_3byte_pc(ptr noundef %0, i32 noundef %1, ptr noundef %2, i32 noundef %3, i32 noundef %4, i32 noundef %5, i32 noundef %6, i32 noundef %7, i32 noundef %8, i32 noundef %9) #0 {
  %11 = alloca ptr, align 8
  %12 = alloca i32, align 4
  %13 = alloca ptr, align 8
  %14 = alloca i32, align 4
  %15 = alloca i32, align 4
  %16 = alloca i32, align 4
  %17 = alloca i32, align 4
  %18 = alloca i32, align 4
  %19 = alloca i32, align 4
  %20 = alloca i32, align 4
  %21 = alloca i32, align 4
  %22 = alloca ptr, align 8
  %23 = alloca ptr, align 8
  %24 = alloca ptr, align 8
  %25 = alloca [20 x i8], align 16
  store ptr %0, ptr %11, align 8
  store i32 %1, ptr %12, align 4
  store ptr %2, ptr %13, align 8
  store i32 %3, ptr %14, align 4
  store i32 %4, ptr %15, align 4
  store i32 %5, ptr %16, align 4
  store i32 %6, ptr %17, align 4
  store i32 %7, ptr %18, align 4
  store i32 %8, ptr %19, align 4
  store i32 %9, ptr %20, align 4
  call void @llvm.lifetime.start.p0(i64 4, ptr %21) #11
  call void @llvm.lifetime.start.p0(i64 8, ptr %22) #11
  call void @llvm.lifetime.start.p0(i64 8, ptr %23) #11
  call void @llvm.lifetime.start.p0(i64 8, ptr %24) #11
  call void @llvm.lifetime.start.p0(i64 20, ptr %25) #11
  %26 = load ptr, ptr %11, align 8
  %27 = load i32, ptr %12, align 4
  %28 = call i32 @tvb_get_letoh24(ptr noundef %26, i32 noundef %27)
  store i32 %28, ptr %21, align 4
  %29 = load i32, ptr %21, align 4
  %30 = getelementptr inbounds [20 x i8], ptr %25, i64 0, i64 0
  call void @mtp3_pc_to_str_buf(i32 noundef %29, ptr noundef %30, i32 noundef 20)
  %31 = load ptr, ptr %13, align 8
  %32 = load i32, ptr %15, align 4
  %33 = load ptr, ptr %11, align 8
  %34 = load i32, ptr %12, align 4
  %35 = getelementptr inbounds [20 x i8], ptr %25, i64 0, i64 0
  %36 = call ptr @proto_tree_add_string(ptr noundef %31, i32 noundef %32, ptr noundef %33, i32 noundef %34, i32 noundef 3, ptr noundef %35)
  store ptr %36, ptr %22, align 8
  %37 = getelementptr inbounds [20 x i8], ptr %25, i64 0, i64 0
  %38 = load i32, ptr %21, align 4
  %39 = call i32 (ptr, i64, i32, i64, ptr, ...) @__snprintf_chk(ptr noundef %37, i64 noundef 20, i32 noundef 2, i64 noundef 20, ptr noundef @.str.22, i32 noundef %38)
  %40 = load ptr, ptr %22, align 8
  %41 = getelementptr inbounds [20 x i8], ptr %25, i64 0, i64 0
  call void (ptr, ptr, ...) @proto_item_append_text(ptr noundef %40, ptr noundef @.str.23, ptr noundef %41)
  %42 = load ptr, ptr %13, align 8
  %43 = load i32, ptr %15, align 4
  %44 = load ptr, ptr %11, align 8
  %45 = load i32, ptr %12, align 4
  %46 = getelementptr inbounds [20 x i8], ptr %25, i64 0, i64 0
  %47 = call ptr @proto_tree_add_string(ptr noundef %42, i32 noundef %43, ptr noundef %44, i32 noundef %45, i32 noundef 3, ptr noundef %46)
  store ptr %47, ptr %23, align 8
  %48 = load ptr, ptr %23, align 8
  call void @proto_item_set_hidden(ptr noundef %48)
  %49 = getelementptr inbounds [20 x i8], ptr %25, i64 0, i64 0
  %50 = load i32, ptr %21, align 4
  %51 = call i32 (ptr, i64, i32, i64, ptr, ...) @__snprintf_chk(ptr noundef %49, i64 noundef 20, i32 noundef 2, i64 noundef 20, ptr noundef @.str.24, i32 noundef %50)
  %52 = load ptr, ptr %22, align 8
  %53 = getelementptr inbounds [20 x i8], ptr %25, i64 0, i64 0
  call void (ptr, ptr, ...) @proto_item_append_text(ptr noundef %52, ptr noundef @.str.23, ptr noundef %53)
  %54 = load ptr, ptr %13, align 8
  %55 = load i32, ptr %15, align 4
  %56 = load ptr, ptr %11, align 8
  %57 = load i32, ptr %12, align 4
  %58 = getelementptr inbounds [20 x i8], ptr %25, i64 0, i64 0
  %59 = call ptr @proto_tree_add_string(ptr noundef %54, i32 noundef %55, ptr noundef %56, i32 noundef %57, i32 noundef 3, ptr noundef %58)
  store ptr %59, ptr %23, align 8
  %60 = load ptr, ptr %23, align 8
  call void @proto_item_set_hidden(ptr noundef %60)
  %61 = load ptr, ptr %22, align 8
  %62 = load i32, ptr %14, align 4
  %63 = call ptr @proto_item_add_subtree(ptr noundef %61, i32 noundef %62)
  store ptr %63, ptr %24, align 8
  %64 = load ptr, ptr %24, align 8
  %65 = load i32, ptr %16, align 4
  %66 = load ptr, ptr %11, align 8
  %67 = load i32, ptr %12, align 4
  %68 = add i32 %67, 2
  %69 = load i32, ptr %21, align 4
  %70 = call ptr @proto_tree_add_uint(ptr noundef %64, i32 noundef %65, ptr noundef %66, i32 noundef %68, i32 noundef 1, i32 noundef %69)
  %71 = load ptr, ptr %24, align 8
  %72 = load i32, ptr %17, align 4
  %73 = load ptr, ptr %11, align 8
  %74 = load i32, ptr %12, align 4
  %75 = add i32 %74, 1
  %76 = load i32, ptr %21, align 4
  %77 = call ptr @proto_tree_add_uint(ptr noundef %71, i32 noundef %72, ptr noundef %73, i32 noundef %75, i32 noundef 1, i32 noundef %76)
  %78 = load ptr, ptr %24, align 8
  %79 = load i32, ptr %18, align 4
  %80 = load ptr, ptr %11, align 8
  %81 = load i32, ptr %12, align 4
  %82 = add i32 %81, 0
  %83 = load i32, ptr %21, align 4
  %84 = call ptr @proto_tree_add_uint(ptr noundef %78, i32 noundef %79, ptr noundef %80, i32 noundef %82, i32 noundef 1, i32 noundef %83)
  %85 = load i32, ptr %19, align 4
  %86 = icmp ne i32 %85, 0
  br i1 %86, label %87, label %95

87:                                               ; preds = %10
  %88 = load ptr, ptr %24, align 8
  %89 = load i32, ptr %19, align 4
  %90 = load ptr, ptr %11, align 8
  %91 = load i32, ptr %12, align 4
  %92 = load i32, ptr %21, align 4
  %93 = call ptr @proto_tree_add_uint(ptr noundef %88, i32 noundef %89, ptr noundef %90, i32 noundef %91, i32 noundef 3, i32 noundef %92)
  store ptr %93, ptr %23, align 8
  %94 = load ptr, ptr %23, align 8
  call void @proto_item_set_hidden(ptr noundef %94)
  br label %95

95:                                               ; preds = %87, %10
  %96 = load i32, ptr %20, align 4
  %97 = icmp ne i32 %96, 0
  br i1 %97, label %98, label %106

98:                                               ; preds = %95
  %99 = load ptr, ptr %24, align 8
  %100 = load i32, ptr %20, align 4
  %101 = load ptr, ptr %11, align 8
  %102 = load i32, ptr %12, align 4
  %103 = load i32, ptr %21, align 4
  %104 = call ptr @proto_tree_add_uint(ptr noundef %99, i32 noundef %100, ptr noundef %101, i32 noundef %102, i32 noundef 3, i32 noundef %103)
  store ptr %104, ptr %23, align 8
  %105 = load ptr, ptr %23, align 8
  call void @proto_item_set_hidden(ptr noundef %105)
  br label %106

106:                                              ; preds = %98, %95
  call void @llvm.lifetime.end.p0(i64 20, ptr %25) #11
  call void @llvm.lifetime.end.p0(i64 8, ptr %24) #11
  call void @llvm.lifetime.end.p0(i64 8, ptr %23) #11
  call void @llvm.lifetime.end.p0(i64 8, ptr %22) #11
  call void @llvm.lifetime.end.p0(i64 4, ptr %21) #11
  ret void
}