; Function Attrs: null_pointer_is_valid sspstrong uwtable
define hidden void @dissect_mtp3_3byte_pc(ptr noundef %0, i32 noundef %1, ptr noundef %2, i32 noundef %3, i32 noundef %4, i32 noundef %5, i32 noundef %6, i32 noundef %7, i32 noundef %8, i32 noundef %9) local_unnamed_addr #0 {
  %11 = alloca [20 x i8], align 16
  call void @llvm.lifetime.start.p0(i64 20, ptr nonnull %11) #16
  %12 = tail call i32 @tvb_get_letoh24(ptr noundef %0, i32 noundef %1)
  call fastcc void @mtp3_pc_to_str_buf(i32 noundef %12, ptr noundef nonnull %11, i32 noundef 20)
  %13 = call ptr @proto_tree_add_string(ptr noundef %2, i32 noundef %4, ptr noundef %0, i32 noundef %1, i32 noundef 3, ptr noundef nonnull %11)
  %14 = call i32 (ptr, i64, i32, i64, ptr, ...) @__snprintf_chk(ptr noundef nonnull %11, i64 noundef 20, i32 noundef 2, i64 noundef 20, ptr noundef nonnull @.str.22, i32 noundef %12)
  call void (ptr, ptr, ...) @proto_item_append_text(ptr noundef %13, ptr noundef nonnull @.str.23, ptr noundef nonnull %11)
  %15 = call ptr @proto_tree_add_string(ptr noundef %2, i32 noundef %4, ptr noundef %0, i32 noundef %1, i32 noundef 3, ptr noundef nonnull %11)
  %.not.i = icmp eq ptr %15, null
  br i1 %.not.i, label %proto_item_set_hidden.exit, label %16

16:                                               ; preds = %10
  %17 = getelementptr inbounds nuw i8, ptr %15, i64 40
  %18 = load ptr, ptr %17, align 8
  %.not5.i = icmp eq ptr %18, null
  br i1 %.not5.i, label %proto_item_set_hidden.exit, label %19

19:                                               ; preds = %16
  %20 = getelementptr inbounds nuw i8, ptr %18, i64 28
  %21 = load i32, ptr %20, align 4
  %22 = or i32 %21, 1
  store i32 %22, ptr %20, align 4
  br label %proto_item_set_hidden.exit

proto_item_set_hidden.exit:                       ; preds = %10, %16, %19
  %23 = call i32 (ptr, i64, i32, i64, ptr, ...) @__snprintf_chk(ptr noundef nonnull %11, i64 noundef 20, i32 noundef 2, i64 noundef 20, ptr noundef nonnull @.str.24, i32 noundef %12)
  call void (ptr, ptr, ...) @proto_item_append_text(ptr noundef %13, ptr noundef nonnull @.str.23, ptr noundef nonnull %11)
  %24 = call ptr @proto_tree_add_string(ptr noundef %2, i32 noundef %4, ptr noundef %0, i32 noundef %1, i32 noundef 3, ptr noundef nonnull %11)
  %.not.i53 = icmp eq ptr %24, null
  br i1 %.not.i53, label %proto_item_set_hidden.exit55, label %25

25:                                               ; preds = %proto_item_set_hidden.exit
  %26 = getelementptr inbounds nuw i8, ptr %24, i64 40
  %27 = load ptr, ptr %26, align 8
  %.not5.i54 = icmp eq ptr %27, null
  br i1 %.not5.i54, label %proto_item_set_hidden.exit55, label %28

28:                                               ; preds = %25
  %29 = getelementptr inbounds nuw i8, ptr %27, i64 28
  %30 = load i32, ptr %29, align 4
  %31 = or i32 %30, 1
  store i32 %31, ptr %29, align 4
  br label %proto_item_set_hidden.exit55

proto_item_set_hidden.exit55:                     ; preds = %proto_item_set_hidden.exit, %25, %28
  %32 = call ptr @proto_item_add_subtree(ptr noundef %13, i32 noundef %3)
  %33 = add i32 %1, 2
  %34 = call ptr @proto_tree_add_uint(ptr noundef %32, i32 noundef %5, ptr noundef %0, i32 noundef %33, i32 noundef 1, i32 noundef %12)
  %35 = add i32 %1, 1
  %36 = call ptr @proto_tree_add_uint(ptr noundef %32, i32 noundef %6, ptr noundef %0, i32 noundef %35, i32 noundef 1, i32 noundef %12)
  %37 = call ptr @proto_tree_add_uint(ptr noundef %32, i32 noundef %7, ptr noundef %0, i32 noundef %1, i32 noundef 1, i32 noundef %12)
  %.not = icmp eq i32 %8, 0
  br i1 %.not, label %proto_item_set_hidden.exit58, label %38

38:                                               ; preds = %proto_item_set_hidden.exit55
  %39 = call ptr @proto_tree_add_uint(ptr noundef %32, i32 noundef %8, ptr noundef %0, i32 noundef %1, i32 noundef 3, i32 noundef %12)
  %.not.i56 = icmp eq ptr %39, null
  br i1 %.not.i56, label %proto_item_set_hidden.exit58, label %40

40:                                               ; preds = %38
  %41 = getelementptr inbounds nuw i8, ptr %39, i64 40
  %42 = load ptr, ptr %41, align 8
  %.not5.i57 = icmp eq ptr %42, null
  br i1 %.not5.i57, label %proto_item_set_hidden.exit58, label %43

43:                                               ; preds = %40
  %44 = getelementptr inbounds nuw i8, ptr %42, i64 28
  %45 = load i32, ptr %44, align 4
  %46 = or i32 %45, 1
  store i32 %46, ptr %44, align 4
  br label %proto_item_set_hidden.exit58

proto_item_set_hidden.exit58:                     ; preds = %43, %40, %38, %proto_item_set_hidden.exit55
  %.not52 = icmp eq i32 %9, 0
  br i1 %.not52, label %proto_item_set_hidden.exit61, label %47

47:                                               ; preds = %proto_item_set_hidden.exit58
  %48 = call ptr @proto_tree_add_uint(ptr noundef %32, i32 noundef %9, ptr noundef %0, i32 noundef %1, i32 noundef 3, i32 noundef %12)
  %.not.i59 = icmp eq ptr %48, null
  br i1 %.not.i59, label %proto_item_set_hidden.exit61, label %49

49:                                               ; preds = %47
  %50 = getelementptr inbounds nuw i8, ptr %48, i64 40
  %51 = load ptr, ptr %50, align 8
  %.not5.i60 = icmp eq ptr %51, null
  br i1 %.not5.i60, label %proto_item_set_hidden.exit61, label %52

52:                                               ; preds = %49
  %53 = getelementptr inbounds nuw i8, ptr %51, i64 28
  %54 = load i32, ptr %53, align 4
  %55 = or i32 %54, 1
  store i32 %55, ptr %53, align 4
  br label %proto_item_set_hidden.exit61

proto_item_set_hidden.exit61:                     ; preds = %52, %49, %47, %proto_item_set_hidden.exit58
  call void @llvm.lifetime.end.p0(i64 20, ptr nonnull %11) #16
  ret void
}